target datalayout = "e-m:e-p270:32:32-p271:32:32-p272:64:64-i64:64-i128:128-f80:128-n8:16:32:64-S128"
target triple = "x86_64-pc-linux-gnu"

%struct._e_guid_t = type { i32, i16, i16, [8 x i8] }
%struct._packet_info = type { ptr, ptr, i32, i32, %struct.nstime_t, %struct.nstime_t, %struct.nstime_t, i32, ptr, ptr, ptr, ptr, %struct._address, %struct._address, %struct._address, %struct._address, %struct._address, %struct._address, i32, ptr, i32, %struct.anon, i32, i32, i32, i32, ptr, i32, ptr, ptr, i16, i16, i32, i32, i16, i32, i32, ptr, ptr, ptr, i8, i8, i16, i16, i16, i32, i16, i16, ptr, ptr, ptr, ptr, ptr, i32 }
%struct.nstime_t = type { i64, i32 }
%struct._address = type { i32, i32, ptr, ptr }
%struct.anon = type { i8, [3 x i8] }
%struct._frame_data = type { i32, i32, i32, i32, i64, ptr, ptr, ptr, i16, i16, %struct.nstime_t, %struct.nstime_t, i32, i32, i8 }
%struct.tagARUUIDFrame = type { %struct._e_guid_t, i32, i32, i16, i16 }
%struct.tagIoDataObject = type { i16, i16, i32, i32, i32, i16, i16, i16, i32, i16, i16, i16, i32, i8, %struct._address, %struct._address, i32, i32, ptr, ptr, ptr, i8, i8 }
%struct.tagStationInfo = type { ptr, ptr, i16, i16, i16, i16, i16, i16, i32, i32, ptr, ptr, ptr, ptr, ptr, ptr }

@hf_pn_io_data_description_tree = internal global i32 0, align 4
@hf_pn_io_data_description = internal global i32 0, align 4
@hf_pn_io_submodule_data_length = internal global i32 0, align 4
@hf_pn_io_length_iocs = internal global i32 0, align 4
@hf_pn_io_length_iops = internal global i32 0, align 4
@ett_pn_io_data_description = internal global i32 0, align 4
@.str.1321 = private unnamed_addr constant [7 x i8] c"(0x%x)\00", align 1
@.str.1530 = private unnamed_addr constant [64 x i8] c": %s, SubmoduleDataLength: %u, LengthIOCS: %u, u8LengthIOPS: %u\00", align 1

; Function Attrs: nounwind uwtable
define internal i32 @dissect_DataDescription(ptr noundef %0, i32 noundef %1, ptr noundef %2, ptr noundef %3, ptr noundef %4, ptr noundef %5) #0 {
  %7 = alloca ptr, align 8
  %8 = alloca i32, align 4
  %9 = alloca ptr, align 8
  %10 = alloca ptr, align 8
  %11 = alloca ptr, align 8
  %12 = alloca ptr, align 8
  %13 = alloca i16, align 2
  %14 = alloca i16, align 2
  %15 = alloca i8, align 1
  %16 = alloca i8, align 1
  %17 = alloca ptr, align 8
  %18 = alloca ptr, align 8
  %19 = alloca i32, align 4
  %20 = alloca ptr, align 8
  %21 = alloca ptr, align 8
  %22 = alloca ptr, align 8
  %23 = alloca ptr, align 8
  %24 = alloca ptr, align 8
  %25 = alloca ptr, align 8
  %26 = alloca i32, align 4
  store ptr %0, ptr %7, align 8
  store i32 %1, ptr %8, align 4
  store ptr %2, ptr %9, align 8
  store ptr %3, ptr %10, align 8
  store ptr %4, ptr %11, align 8
  store ptr %5, ptr %12, align 8
  store ptr null, ptr %21, align 8
  store ptr null, ptr %25, align 8
  store i32 0, ptr %26, align 4
  %27 = load ptr, ptr %10, align 8
  %28 = load i32, ptr @hf_pn_io_data_description_tree, align 4
  %29 = load ptr, ptr %7, align 8
  %30 = load i32, ptr %8, align 4
  %31 = call ptr @proto_tree_add_item(ptr noundef %27, i32 noundef %28, ptr noundef %29, i32 noundef %30, i32 noundef 0, i32 noundef 0)
  store ptr %31, ptr %17, align 8
  %32 = load ptr, ptr %17, align 8
  %33 = load i32, ptr @ett_pn_io_data_description, align 4
  %34 = call ptr @proto_item_add_subtree(ptr noundef %32, i32 noundef %33)
  store ptr %34, ptr %18, align 8
  %35 = load i32, ptr %8, align 4
  store i32 %35, ptr %19, align 4
  %36 = load ptr, ptr %7, align 8
  %37 = load i32, ptr %8, align 4
  %38 = load ptr, ptr %9, align 8
  %39 = load ptr, ptr %18, align 8
  %40 = load ptr, ptr %11, align 8
  %41 = load i32, ptr @hf_pn_io_data_description, align 4
  %42 = call i32 @dissect_dcerpc_uint16(ptr noundef %36, i32 noundef %37, ptr noundef %38, ptr noundef %39, ptr noundef %40, i32 noundef %41, ptr noundef %13)
  store i32 %42, ptr %8, align 4
  %43 = load ptr, ptr %7, align 8
  %44 = load i32, ptr %8, align 4
  %45 = load ptr, ptr %9, align 8
  %46 = load ptr, ptr %18, align 8
  %47 = load ptr, ptr %11, align 8
  %48 = load i32, ptr @hf_pn_io_submodule_data_length, align 4
  %49 = call i32 @dissect_dcerpc_uint16(ptr noundef %43, i32 noundef %44, ptr noundef %45, ptr noundef %46, ptr noundef %47, i32 noundef %48, ptr noundef %14)
  store i32 %49, ptr %8, align 4
  %50 = load ptr, ptr %7, align 8
  %51 = load i32, ptr %8, align 4
  %52 = load ptr, ptr %9, align 8
  %53 = load ptr, ptr %18, align 8
  %54 = load ptr, ptr %11, align 8
  %55 = load i32, ptr @hf_pn_io_length_iocs, align 4
  %56 = call i32 @dissect_dcerpc_uint8(ptr noundef %50, i32 noundef %51, ptr noundef %52, ptr noundef %53, ptr noundef %54, i32 noundef %55, ptr noundef %15)
  store i32 %56, ptr %8, align 4
  %57 = load ptr, ptr %7, align 8
  %58 = load i32, ptr %8, align 4
  %59 = load ptr, ptr %9, align 8
  %60 = load ptr, ptr %18, align 8
  %61 = load ptr, ptr %11, align 8
  %62 = load i32, ptr @hf_pn_io_length_iops, align 4
  %63 = call i32 @dissect_dcerpc_uint8(ptr noundef %57, i32 noundef %58, ptr noundef %59, ptr noundef %60, ptr noundef %61, i32 noundef %62, ptr noundef %16)
  store i32 %63, ptr %8, align 4
  %64 = load ptr, ptr %17, align 8
  %65 = load i16, ptr %13, align 2
  %66 = zext i16 %65 to i32
  %67 = call ptr @val_to_str(i32 noundef %66, ptr noundef @pn_io_data_description, ptr noundef @.str.1321)
  %68 = load i16, ptr %14, align 2
  %69 = zext i16 %68 to i32
  %70 = load i8, ptr %15, align 1
  %71 = zext i8 %70 to i32
  %72 = load i8, ptr %16, align 1
  %73 = zext i8 %72 to i32
  call void (ptr, ptr, ...) @proto_item_append_text(ptr noundef %64, ptr noundef @.str.1530, ptr noundef %67, i32 noundef %69, i32 noundef %71, i32 noundef %73)
  %74 = load ptr, ptr %17, align 8
  %75 = load i32, ptr %8, align 4
  %76 = load i32, ptr %19, align 4
  %77 = sub i32 %75, %76
  call void @proto_item_set_len(ptr noundef %74, i32 noundef %77)
  %78 = load ptr, ptr %9, align 8
  %79 = getelementptr inbounds %struct._packet_info, ptr %78, i32 0, i32 8
  %80 = load ptr, ptr %79, align 8
  %81 = getelementptr inbounds %struct._frame_data, ptr %80, i32 0, i32 9
  %82 = load i16, ptr %81, align 2
  %83 = lshr i16 %82, 3
  %84 = and i16 %83, 1
  %85 = zext i16 %84 to i32
  %86 = icmp ne i32 %85, 0
  br i1 %86, label %217, label %87

87:                                               ; preds = %6
  %88 = load ptr, ptr %9, align 8
  %89 = getelementptr inbounds %struct._packet_info, ptr %88, i32 0, i32 3
  %90 = load i32, ptr %89, align 4
  %91 = load ptr, ptr %9, align 8
  %92 = getelementptr inbounds %struct._packet_info, ptr %91, i32 0, i32 12
  %93 = load ptr, ptr %9, align 8
  %94 = getelementptr inbounds %struct._packet_info, ptr %93, i32 0, i32 13
  %95 = call ptr @find_conversation(i32 noundef %90, ptr noundef %92, ptr noundef %94, i32 noundef 0, i32 noundef 0, i32 noundef 0, i32 noundef 0)
  store ptr %95, ptr %20, align 8
  %96 = load ptr, ptr %20, align 8
  %97 = icmp eq ptr %96, null
  br i1 %97, label %98, label %107

98:                                               ; preds = %87
  %99 = load ptr, ptr %9, align 8
  %100 = getelementptr inbounds %struct._packet_info, ptr %99, i32 0, i32 3
  %101 = load i32, ptr %100, align 4
  %102 = load ptr, ptr %9, align 8
  %103 = getelementptr inbounds %struct._packet_info, ptr %102, i32 0, i32 13
  %104 = load ptr, ptr %9, align 8
  %105 = getelementptr inbounds %struct._packet_info, ptr %104, i32 0, i32 12
  %106 = call nonnull ptr @conversation_new(i32 noundef %101, ptr noundef %103, ptr noundef %105, i32 noundef 0, i32 noundef 0, i32 noundef 0, i32 noundef 0)
  store ptr %106, ptr %20, align 8
  br label %107

107:                                              ; preds = %98, %87
  %108 = load ptr, ptr %9, align 8
  %109 = call ptr @pn_find_aruuid_frame_setup(ptr noundef %108)
  store ptr %109, ptr %25, align 8
  %110 = load ptr, ptr %25, align 8
  %111 = icmp ne ptr %110, null
  br i1 %111, label %112, label %117

112:                                              ; preds = %107
  %113 = load ptr, ptr %25, align 8
  %114 = getelementptr inbounds %struct.tagARUUIDFrame, ptr %113, i32 0, i32 0
  %115 = getelementptr inbounds %struct._e_guid_t, ptr %114, i32 0, i32 0
  %116 = load i32, ptr %115, align 4
  store i32 %116, ptr %26, align 4
  br label %117

117:                                              ; preds = %112, %107
  %118 = load ptr, ptr %20, align 8
  %119 = load i32, ptr %26, align 4
  %120 = call ptr @conversation_get_proto_data(ptr noundef %118, i32 noundef %119)
  store ptr %120, ptr %21, align 8
  %121 = load ptr, ptr %21, align 8
  %122 = icmp ne ptr %121, null
  br i1 %122, label %123, label %216

123:                                              ; preds = %117
  %124 = load ptr, ptr %21, align 8
  %125 = load ptr, ptr %20, align 8
  call void @pn_find_dcp_station_info(ptr noundef %124, ptr noundef %125)
  %126 = load i16, ptr %13, align 2
  %127 = zext i16 %126 to i32
  %128 = icmp eq i32 %127, 1
  br i1 %128, label %129, label %133

129:                                              ; preds = %123
  %130 = load ptr, ptr %21, align 8
  %131 = getelementptr inbounds %struct.tagStationInfo, ptr %130, i32 0, i32 13
  %132 = load ptr, ptr %131, align 8
  store ptr %132, ptr %24, align 8
  br label %137

133:                                              ; preds = %123
  %134 = load ptr, ptr %21, align 8
  %135 = getelementptr inbounds %struct.tagStationInfo, ptr %134, i32 0, i32 14
  %136 = load ptr, ptr %135, align 8
  store ptr %136, ptr %24, align 8
  br label %137

137:                                              ; preds = %133, %129
  %138 = load ptr, ptr %24, align 8
  %139 = call ptr @wmem_list_head(ptr noundef %138)
  store ptr %139, ptr %23, align 8
  br label %140

140:                                              ; preds = %212, %137
  %141 = load ptr, ptr %23, align 8
  %142 = icmp ne ptr %141, null
  br i1 %142, label %143, label %215

143:                                              ; preds = %140
  %144 = load ptr, ptr %23, align 8
  %145 = call ptr @wmem_list_frame_data(ptr noundef %144)
  store ptr %145, ptr %22, align 8
  %146 = load ptr, ptr %22, align 8
  %147 = getelementptr inbounds %struct.tagIoDataObject, ptr %146, i32 0, i32 0
  %148 = load i16, ptr %147, align 8
  %149 = zext i16 %148 to i32
  %150 = load ptr, ptr %12, align 8
  %151 = getelementptr inbounds %struct.tagIoDataObject, ptr %150, i32 0, i32 0
  %152 = load i16, ptr %151, align 8
  %153 = zext i16 %152 to i32
  %154 = icmp eq i32 %149, %153
  br i1 %154, label %155, label %211

155:                                              ; preds = %143
  %156 = load ptr, ptr %22, align 8
  %157 = getelementptr inbounds %struct.tagIoDataObject, ptr %156, i32 0, i32 1
  %158 = load i16, ptr %157, align 2
  %159 = zext i16 %158 to i32
  %160 = load ptr, ptr %12, align 8
  %161 = getelementptr inbounds %struct.tagIoDataObject, ptr %160, i32 0, i32 1
  %162 = load i16, ptr %161, align 2
  %163 = zext i16 %162 to i32
  %164 = icmp eq i32 %159, %163
  br i1 %164, label %165, label %211

165:                                              ; preds = %155
  %166 = load ptr, ptr %12, align 8
  %167 = getelementptr inbounds %struct.tagIoDataObject, ptr %166, i32 0, i32 2
  %168 = load i32, ptr %167, align 4
  %169 = load ptr, ptr %22, align 8
  %170 = getelementptr inbounds %struct.tagIoDataObject, ptr %169, i32 0, i32 2
  store i32 %168, ptr %170, align 4
  %171 = load ptr, ptr %12, align 8
  %172 = getelementptr inbounds %struct.tagIoDataObject, ptr %171, i32 0, i32 3
  %173 = load i32, ptr %172, align 8
  %174 = load ptr, ptr %22, align 8
  %175 = getelementptr inbounds %struct.tagIoDataObject, ptr %174, i32 0, i32 3
  store i32 %173, ptr %175, align 8
  %176 = load ptr, ptr %12, align 8
  %177 = getelementptr inbounds %struct.tagIoDataObject, ptr %176, i32 0, i32 4
  %178 = load i32, ptr %177, align 4
  %179 = load ptr, ptr %22, align 8
  %180 = getelementptr inbounds %struct.tagIoDataObject, ptr %179, i32 0, i32 4
  store i32 %178, ptr %180, align 4
  %181 = load i16, ptr %14, align 2
  %182 = load ptr, ptr %22, align 8
  %183 = getelementptr inbounds %struct.tagIoDataObject, ptr %182, i32 0, i32 6
  store i16 %181, ptr %183, align 2
  %184 = call ptr @wmem_file_scope()
  %185 = load ptr, ptr %12, align 8
  %186 = getelementptr inbounds %struct.tagIoDataObject, ptr %185, i32 0, i32 18
  %187 = load ptr, ptr %186, align 8
  %188 = call noalias ptr @wmem_strdup(ptr noundef %184, ptr noundef %187)
  %189 = load ptr, ptr %22, align 8
  %190 = getelementptr inbounds %struct.tagIoDataObject, ptr %189, i32 0, i32 18
  store ptr %188, ptr %190, align 8
  %191 = load ptr, ptr %12, align 8
  %192 = getelementptr inbounds %struct.tagIoDataObject, ptr %191, i32 0, i32 16
  %193 = load i32, ptr %192, align 8
  %194 = load ptr, ptr %22, align 8
  %195 = getelementptr inbounds %struct.tagIoDataObject, ptr %194, i32 0, i32 16
  store i32 %193, ptr %195, align 8
  %196 = load ptr, ptr %12, align 8
  %197 = getelementptr inbounds %struct.tagIoDataObject, ptr %196, i32 0, i32 17
  %198 = load i32, ptr %197, align 4
  %199 = load ptr, ptr %22, align 8
  %200 = getelementptr inbounds %struct.tagIoDataObject, ptr %199, i32 0, i32 17
  store i32 %198, ptr %200, align 4
  %201 = load ptr, ptr %12, align 8
  %202 = getelementptr inbounds %struct.tagIoDataObject, ptr %201, i32 0, i32 7
  %203 = load i16, ptr %202, align 4
  %204 = load ptr, ptr %22, align 8
  %205 = getelementptr inbounds %struct.tagIoDataObject, ptr %204, i32 0, i32 7
  store i16 %203, ptr %205, align 4
  %206 = load ptr, ptr %12, align 8
  %207 = getelementptr inbounds %struct.tagIoDataObject, ptr %206, i32 0, i32 8
  %208 = load i32, ptr %207, align 8
  %209 = load ptr, ptr %22, align 8
  %210 = getelementptr inbounds %struct.tagIoDataObject, ptr %209, i32 0, i32 8
  store i32 %208, ptr %210, align 8
  br label %215

211:                                              ; preds = %155, %143
  br label %212

212:                                              ; preds = %211
  %213 = load ptr, ptr %23, align 8
  %214 = call ptr @wmem_list_frame_next(ptr noundef %213)
  store ptr %214, ptr %23, align 8
  br label %140, !llvm.loop !90

215:                                              ; preds = %165, %140
  br label %216

216:                                              ; preds = %215, %117
  br label %217

217:                                              ; preds = %216, %6
  %218 = load i32, ptr %8, align 4
  ret i32 %218
}