; Function Attrs: nounwind uwtable
define internal fastcc i32 @dissect_DataDescription(ptr noundef %0, i32 noundef %1, ptr noundef %2, ptr noundef %3, ptr noundef %4, ptr noundef readonly captures(none) %5) unnamed_addr #0 {
  %7 = alloca i16, align 2
  %8 = alloca i16, align 2
  %9 = alloca i8, align 1
  %10 = alloca i8, align 1
  %11 = load i32, ptr @hf_pn_io_data_description_tree, align 4
  %12 = tail call ptr @proto_tree_add_item(ptr noundef %3, i32 noundef %11, ptr noundef %0, i32 noundef %1, i32 noundef 0, i32 noundef 0) #11
  %13 = load i32, ptr @ett_pn_io_data_description, align 4
  %14 = tail call ptr @proto_item_add_subtree(ptr noundef %12, i32 noundef %13) #11
  %15 = load i32, ptr @hf_pn_io_data_description, align 4
  %16 = call i32 @dissect_dcerpc_uint16(ptr noundef %0, i32 noundef %1, ptr noundef %2, ptr noundef %14, ptr noundef %4, i32 noundef %15, ptr noundef nonnull %7) #11
  %17 = load i32, ptr @hf_pn_io_submodule_data_length, align 4
  %18 = call i32 @dissect_dcerpc_uint16(ptr noundef %0, i32 noundef %16, ptr noundef %2, ptr noundef %14, ptr noundef %4, i32 noundef %17, ptr noundef nonnull %8) #11
  %19 = load i32, ptr @hf_pn_io_length_iocs, align 4
  %20 = call i32 @dissect_dcerpc_uint8(ptr noundef %0, i32 noundef %18, ptr noundef %2, ptr noundef %14, ptr noundef %4, i32 noundef %19, ptr noundef nonnull %9) #11
  %21 = load i32, ptr @hf_pn_io_length_iops, align 4
  %22 = call i32 @dissect_dcerpc_uint8(ptr noundef %0, i32 noundef %20, ptr noundef %2, ptr noundef %14, ptr noundef %4, i32 noundef %21, ptr noundef nonnull %10) #11
  %23 = load i16, ptr %7, align 2
  %24 = zext i16 %23 to i32
  %25 = call ptr @val_to_str(i32 noundef %24, ptr noundef nonnull @pn_io_data_description, ptr noundef nonnull @.str.1321) #11
  %26 = load i16, ptr %8, align 2
  %27 = zext i16 %26 to i32
  %28 = load i8, ptr %9, align 1
  %29 = zext i8 %28 to i32
  %30 = load i8, ptr %10, align 1
  %31 = zext i8 %30 to i32
  call void (ptr, ptr, ...) @proto_item_append_text(ptr noundef %12, ptr noundef nonnull @.str.1530, ptr noundef %25, i32 noundef %27, i32 noundef %29, i32 noundef %31) #11
  %32 = sub i32 %22, %1
  call void @proto_item_set_len(ptr noundef %12, i32 noundef %32) #11
  %33 = getelementptr inbounds nuw i8, ptr %2, i64 80
  %34 = load ptr, ptr %33, align 8
  %35 = getelementptr inbounds nuw i8, ptr %34, i64 50
  %36 = load i16, ptr %35, align 2
  %37 = and i16 %36, 8
  %.not = icmp eq i16 %37, 0
  br i1 %.not, label %38, label %.loopexit

38:                                               ; preds = %6
  %39 = getelementptr inbounds nuw i8, ptr %2, i64 20
  %40 = load i32, ptr %39, align 4
  %41 = getelementptr inbounds nuw i8, ptr %2, i64 112
  %42 = getelementptr inbounds nuw i8, ptr %2, i64 136
  %43 = call ptr @find_conversation(i32 noundef %40, ptr noundef nonnull %41, ptr noundef nonnull %42, i32 noundef 0, i32 noundef 0, i32 noundef 0, i32 noundef 0) #11
  %44 = icmp eq ptr %43, null
  br i1 %44, label %45, label %48

45:                                               ; preds = %38
  %46 = load i32, ptr %39, align 4
  %47 = call nonnull ptr @conversation_new(i32 noundef %46, ptr noundef nonnull %42, ptr noundef nonnull %41, i32 noundef 0, i32 noundef 0, i32 noundef 0, i32 noundef 0) #11
  br label %48

48:                                               ; preds = %45, %38
  %.074 = phi ptr [ %47, %45 ], [ %43, %38 ]
  %49 = call ptr @pn_find_aruuid_frame_setup(ptr noundef nonnull %2) #11
  %.not78 = icmp eq ptr %49, null
  br i1 %.not78, label %52, label %50

50:                                               ; preds = %48
  %51 = load i32, ptr %49, align 4
  br label %52

52:                                               ; preds = %50, %48
  %.0 = phi i32 [ %51, %50 ], [ 0, %48 ]
  %53 = call ptr @conversation_get_proto_data(ptr noundef nonnull %.074, i32 noundef %.0) #11
  %.not79 = icmp eq ptr %53, null
  br i1 %.not79, label %.loopexit, label %54

54:                                               ; preds = %52
  call void @pn_find_dcp_station_info(ptr noundef nonnull %53, ptr noundef nonnull %.074) #11
  %55 = load i16, ptr %7, align 2
  %56 = icmp eq i16 %55, 1
  %.072.in.v = select i1 %56, i64 64, i64 72
  %.072.in = getelementptr inbounds nuw i8, ptr %53, i64 %.072.in.v
  %.072 = load ptr, ptr %.072.in, align 8
  %57 = call ptr @wmem_list_head(ptr noundef %.072) #11
  %.not8081 = icmp eq ptr %57, null
  br i1 %.not8081, label %.loopexit, label %.lr.ph

.lr.ph:                                           ; preds = %54
  %58 = getelementptr inbounds nuw i8, ptr %5, i64 2
  br label %59

59:                                               ; preds = %.lr.ph, %98
  %.07382 = phi ptr [ %57, %.lr.ph ], [ %99, %98 ]
  %60 = call ptr @wmem_list_frame_data(ptr noundef nonnull %.07382) #11
  %61 = load i16, ptr %60, align 8
  %62 = load i16, ptr %5, align 8
  %63 = icmp eq i16 %61, %62
  br i1 %63, label %64, label %98

64:                                               ; preds = %59
  %65 = getelementptr inbounds nuw i8, ptr %60, i64 2
  %66 = load i16, ptr %65, align 2
  %67 = load i16, ptr %58, align 2
  %68 = icmp eq i16 %66, %67
  br i1 %68, label %69, label %98

69:                                               ; preds = %64
  %70 = getelementptr inbounds nuw i8, ptr %5, i64 4
  %71 = load i32, ptr %70, align 4
  %72 = getelementptr inbounds nuw i8, ptr %60, i64 4
  store i32 %71, ptr %72, align 4
  %73 = getelementptr inbounds nuw i8, ptr %5, i64 8
  %74 = load i32, ptr %73, align 8
  %75 = getelementptr inbounds nuw i8, ptr %60, i64 8
  store i32 %74, ptr %75, align 8
  %76 = getelementptr inbounds nuw i8, ptr %5, i64 12
  %77 = load i32, ptr %76, align 4
  %78 = getelementptr inbounds nuw i8, ptr %60, i64 12
  store i32 %77, ptr %78, align 4
  %79 = load i16, ptr %8, align 2
  %80 = getelementptr inbounds nuw i8, ptr %60, i64 18
  store i16 %79, ptr %80, align 2
  %81 = call ptr @wmem_file_scope() #11
  %82 = getelementptr inbounds nuw i8, ptr %5, i64 104
  %83 = load ptr, ptr %82, align 8
  %84 = call noalias ptr @wmem_strdup(ptr noundef %81, ptr noundef %83) #11
  %85 = getelementptr inbounds nuw i8, ptr %60, i64 104
  store ptr %84, ptr %85, align 8
  %86 = getelementptr inbounds nuw i8, ptr %5, i64 96
  %87 = load i32, ptr %86, align 8
  %88 = getelementptr inbounds nuw i8, ptr %60, i64 96
  store i32 %87, ptr %88, align 8
  %89 = getelementptr inbounds nuw i8, ptr %5, i64 100
  %90 = load i32, ptr %89, align 4
  %91 = getelementptr inbounds nuw i8, ptr %60, i64 100
  store i32 %90, ptr %91, align 4
  %92 = getelementptr inbounds nuw i8, ptr %5, i64 20
  %93 = load i16, ptr %92, align 4
  %94 = getelementptr inbounds nuw i8, ptr %60, i64 20
  store i16 %93, ptr %94, align 4
  %95 = getelementptr inbounds nuw i8, ptr %5, i64 24
  %96 = load i32, ptr %95, align 8
  %97 = getelementptr inbounds nuw i8, ptr %60, i64 24
  store i32 %96, ptr %97, align 8
  br label %.loopexit

98:                                               ; preds = %59, %64
  %99 = call ptr @wmem_list_frame_next(ptr noundef nonnull %.07382) #11
  %.not80 = icmp eq ptr %99, null
  br i1 %.not80, label %.loopexit, label %59, !llvm.loop !97

.loopexit:                                        ; preds = %98, %54, %52, %69, %6
  ret i32 %22
}